; ModuleID = 'source-C-CXX/14/208.c'
source_filename = "source-C-CXX/14/208.c"
target datalayout = "e-m:e-p270:32:32-p271:32:32-p272:64:64-i64:64-f80:128-n8:16:32:64-S128"
target triple = "x86_64-pc-linux-gnu"

@.str = private unnamed_addr constant [3 x i8] c"%d\00", align 1
@.str.1 = private unnamed_addr constant [4 x i8] c"%d\0A\00", align 1

; Function Attrs: nofree nounwind sspstrong uwtable
define dso_local void @main() local_unnamed_addr #0 {
  %1 = alloca i32, align 4
  %2 = alloca [1000 x i32], align 16
  %3 = bitcast i32* %1 to i8*
  call void @llvm.lifetime.start.p0i8(i64 4, i8* nonnull %3) #4
  %4 = call i32 (i8*, ...) @__isoc99_scanf(i8* getelementptr inbounds ([3 x i8], [3 x i8]* @.str, i64 0, i64 0), i32* nonnull %1)
  %5 = bitcast [1000 x i32]* %2 to i8*
  %6 = load i32, i32* %1, align 4, !tbaa !5
  %7 = icmp sgt i32 %6, 0
  br i1 %7, label %8, label %31

8:                                                ; preds = %0, %26
  %9 = phi i32 [ %27, %26 ], [ %6, %0 ]
  %10 = phi i32 [ %29, %26 ], [ 0, %0 ]
  %11 = phi i32 [ %28, %26 ], [ 0, %0 ]
  %12 = icmp sgt i32 %9, 0
  br i1 %12, label %13, label %26

13:                                               ; preds = %8, %13
  %14 = phi i64 [ %22, %13 ], [ 0, %8 ]
  %15 = phi i32 [ %21, %13 ], [ %11, %8 ]
  call void @llvm.lifetime.start.p0i8(i64 4000, i8* nonnull %5) #4
  %16 = getelementptr inbounds [1000 x i32], [1000 x i32]* %2, i64 0, i64 %14
  %17 = call i32 (i8*, ...) @__isoc99_scanf(i8* getelementptr inbounds ([3 x i8], [3 x i8]* @.str, i64 0, i64 0), i32* nonnull %16)
  %18 = load i32, i32* %16, align 4, !tbaa !5
  %19 = icmp eq i32 %18, 0
  %20 = zext i1 %19 to i32
  %21 = add nsw i32 %15, %20
  call void @llvm.lifetime.end.p0i8(i64 4000, i8* nonnull %5) #4
  %22 = add nuw nsw i64 %14, 1
  %23 = load i32, i32* %1, align 4, !tbaa !5
  %24 = sext i32 %23 to i64
  %25 = icmp slt i64 %22, %24
  br i1 %25, label %13, label %26, !llvm.loop !9

26:                                               ; preds = %13, %8
  %27 = phi i32 [ %9, %8 ], [ %23, %13 ]
  %28 = phi i32 [ %11, %8 ], [ %21, %13 ]
  %29 = add nuw nsw i32 %10, 1
  %30 = icmp slt i32 %29, %27
  br i1 %30, label %8, label %31, !llvm.loop !11

31:                                               ; preds = %26, %0
  %32 = phi i32 [ 0, %0 ], [ %28, %26 ]
  %33 = sitofp i32 %32 to double
  %34 = call double @sqrt(double %33) #4
  %35 = fptosi double %34 to i32
  %36 = add nsw i32 %35, -1
  %37 = mul nsw i32 %36, %36
  %38 = call i32 (i8*, ...) @printf(i8* nonnull dereferenceable(1) getelementptr inbounds ([4 x i8], [4 x i8]* @.str.1, i64 0, i64 0), i32 %37)
  call void @llvm.lifetime.end.p0i8(i64 4, i8* nonnull %3) #4
  ret void
}

; Function Attrs: argmemonly mustprogress nofree nosync nounwind willreturn
declare void @llvm.lifetime.start.p0i8(i64 immarg, i8* nocapture) #1

; Function Attrs: nofree nounwind
declare noundef i32 @__isoc99_scanf(i8* nocapture noundef readonly, ...) local_unnamed_addr #2

; Function Attrs: argmemonly mustprogress nofree nosync nounwind willreturn
declare void @llvm.lifetime.end.p0i8(i64 immarg, i8* nocapture) #1

; Function Attrs: mustprogress nofree nounwind willreturn
declare double @sqrt(double) local_unnamed_addr #3

; Function Attrs: nofree nounwind
declare noundef i32 @printf(i8* nocapture noundef readonly, ...) local_unnamed_addr #2


!llvm.module.flags = !{!0, !1, !2, !3}
!llvm.ident = !{!4}

!0 = !{i32 1, !"wchar_size", i32 4}
!1 = !{i32 7, !"PIC Level", i32 2}
!2 = !{i32 7, !"PIE Level", i32 2}
!3 = !{i32 7, !"uwtable", i32 1}
!4 = !{!"clang version 13.0.0"}
!5 = !{!6, !6, i64 0}
!6 = !{!"int", !7, i64 0}
!7 = !{!"omnipotent char", !8, i64 0}
!8 = !{!"Simple C/C++ TBAA"}
!9 = distinct !{!9, !10}
!10 = !{!"llvm.loop.mustprogress"}
!11 = distinct !{!11, !10, !12}
!12 = !{!"llvm.loop.unswitch.partial.disable"}
